; Function Attrs: mustprogress uwtable
define noundef double @_ZNK8QuantLib6Coupon13accruedPeriodERKNS_4DateE(ptr noundef nonnull align 8 dereferenceable(88) %this, ptr noundef nonnull align 8 dereferenceable(8) %d) local_unnamed_addr #3 align 2 personality ptr @__gxx_personality_v0 {
entry:
  %ref.tmp = alloca %"class.QuantLib::DayCounter", align 8
  %ref.tmp9 = alloca %"class.QuantLib::DayCounter", align 8
  %accrualStartDate_ = getelementptr inbounds nuw i8, ptr %this, i64 40
  %0 = load i64, ptr %d, align 8, !tbaa !26
  %1 = load i64, ptr %accrualStartDate_, align 8, !tbaa !26
  %cmp.i = icmp sle i64 %0, %1
  %paymentDate_ = getelementptr inbounds nuw i8, ptr %this, i64 24
  %2 = load i64, ptr %paymentDate_, align 8
  %cmp.i7 = icmp sgt i64 %0, %2
  %or.cond = select i1 %cmp.i, i1 true, i1 %cmp.i7
  br i1 %or.cond, label %return, label %if.else

if.else:                                          ; preds = %entry
  %call3 = tail call noundef zeroext i1 @_ZNK8QuantLib8CashFlow15tradingExCouponERKNS_4DateE(ptr noundef nonnull align 8 dereferenceable(20) %this, ptr noundef nonnull align 8 dereferenceable(8) %d)
  %accrualEndDate_ = getelementptr inbounds nuw i8, ptr %this, i64 48
  %refPeriodStart_ = getelementptr inbounds nuw i8, ptr %this, i64 56
  %refPeriodEnd_ = getelementptr inbounds nuw i8, ptr %this, i64 64
  br i1 %call3, label %invoke.cont, label %if.else8

invoke.cont:                                      ; preds = %if.else
  call void @llvm.lifetime.start.p0(i64 16, ptr nonnull %ref.tmp) #16
  %vtable = load ptr, ptr %this, align 8, !tbaa !3
  %vfn = getelementptr inbounds i8, ptr %vtable, i64 80
  %3 = load ptr, ptr %vfn, align 8
  call void %3(ptr dead_on_unwind nonnull writable sret(%"class.QuantLib::DayCounter") align 8 %ref.tmp, ptr noundef nonnull align 8 dereferenceable(88) %this)
  %4 = load i64, ptr %d, align 8, !tbaa !26
  %5 = load i64, ptr %accrualEndDate_, align 8, !tbaa !26
  %cmp.i.i = icmp slt i64 %4, %5
  %__b.__a.i = select i1 %cmp.i.i, ptr %accrualEndDate_, ptr %d
  %call7 = invoke noundef double @_ZNK8QuantLib10DayCounter12yearFractionERKNS_4DateES3_S3_S3_(ptr noundef nonnull align 8 dereferenceable(16) %ref.tmp, ptr noundef nonnull align 8 dereferenceable(8) %d, ptr noundef nonnull align 8 dereferenceable(8) %__b.__a.i, ptr noundef nonnull align 8 dereferenceable(8) %refPeriodStart_, ptr noundef nonnull align 8 dereferenceable(8) %refPeriodEnd_)
          to label %invoke.cont6 unwind label %lpad

invoke.cont6:                                     ; preds = %invoke.cont
  %fneg = fneg double %call7
  %pn.i.i = getelementptr inbounds nuw i8, ptr %ref.tmp, i64 8
  %6 = load ptr, ptr %pn.i.i, align 8, !tbaa !27
  %cmp.not.i.i.i = icmp eq ptr %6, null
  br i1 %cmp.not.i.i.i, label %_ZN8QuantLib10DayCounterD2Ev.exit, label %if.then.i.i.i

if.then.i.i.i:                                    ; preds = %invoke.cont6
  %use_count_.i.i.i.i = getelementptr inbounds nuw i8, ptr %6, i64 8
  %7 = atomicrmw sub ptr %use_count_.i.i.i.i, i32 1 acq_rel, align 4
  %cmp.i.i.i.i = icmp eq i32 %7, 1
  br i1 %cmp.i.i.i.i, label %if.then.i.i.i.i, label %_ZN8QuantLib10DayCounterD2Ev.exit

if.then.i.i.i.i:                                  ; preds = %if.then.i.i.i
  %vtable.i.i.i.i = load ptr, ptr %6, align 8, !tbaa !3
  %vfn.i.i.i.i = getelementptr inbounds i8, ptr %vtable.i.i.i.i, i64 16
  %8 = load ptr, ptr %vfn.i.i.i.i, align 8
  invoke void %8(ptr noundef nonnull align 8 dereferenceable(16) %6)
          to label %.noexc.i.i.i unwind label %terminate.lpad.i.i.i

.noexc.i.i.i:                                     ; preds = %if.then.i.i.i.i
  %weak_count_.i.i.i.i.i = getelementptr inbounds nuw i8, ptr %6, i64 12
  %9 = atomicrmw sub ptr %weak_count_.i.i.i.i.i, i32 1 acq_rel, align 4
  %cmp.i.i.i.i.i = icmp eq i32 %9, 1
  br i1 %cmp.i.i.i.i.i, label %if.then.i.i.i.i.i, label %_ZN8QuantLib10DayCounterD2Ev.exit

if.then.i.i.i.i.i:                                ; preds = %.noexc.i.i.i
  %vtable.i.i.i.i.i = load ptr, ptr %6, align 8, !tbaa !3
  %vfn.i.i.i.i.i = getelementptr inbounds i8, ptr %vtable.i.i.i.i.i, i64 24
  %10 = load ptr, ptr %vfn.i.i.i.i.i, align 8
  invoke void %10(ptr noundef nonnull align 8 dereferenceable(16) %6)
          to label %_ZN8QuantLib10DayCounterD2Ev.exit unwind label %terminate.lpad.i.i.i

terminate.lpad.i.i.i:                             ; preds = %if.then.i.i.i.i.i, %if.then.i.i.i.i
  %11 = landingpad { ptr, i32 }
          catch ptr null
  %12 = extractvalue { ptr, i32 } %11, 0
  call void @__clang_call_terminate(ptr %12) #17
  unreachable

_ZN8QuantLib10DayCounterD2Ev.exit:                ; preds = %invoke.cont6, %if.then.i.i.i, %.noexc.i.i.i, %if.then.i.i.i.i.i
  call void @llvm.lifetime.end.p0(i64 16, ptr nonnull %ref.tmp) #16
  br label %return

lpad:                                             ; preds = %invoke.cont
  %13 = landingpad { ptr, i32 }
          cleanup
  call void @_ZN8QuantLib10DayCounterD2Ev(ptr noundef nonnull align 8 dereferenceable(16) %ref.tmp) #16
  call void @llvm.lifetime.end.p0(i64 16, ptr nonnull %ref.tmp) #16
  br label %eh.resume

if.else8:                                         ; preds = %if.else
  call void @llvm.lifetime.start.p0(i64 16, ptr nonnull %ref.tmp9) #16
  %vtable10 = load ptr, ptr %this, align 8, !tbaa !3
  %vfn11 = getelementptr inbounds i8, ptr %vtable10, i64 80
  %14 = load ptr, ptr %vfn11, align 8
  call void %14(ptr dead_on_unwind nonnull writable sret(%"class.QuantLib::DayCounter") align 8 %ref.tmp9, ptr noundef nonnull align 8 dereferenceable(88) %this)
  %15 = load i64, ptr %accrualEndDate_, align 8, !tbaa !26
  %16 = load i64, ptr %d, align 8, !tbaa !26
  %cmp.i.i8 = icmp slt i64 %15, %16
  %__b.__a.i9 = select i1 %cmp.i.i8, ptr %accrualEndDate_, ptr %d
  %call20 = invoke noundef double @_ZNK8QuantLib10DayCounter12yearFractionERKNS_4DateES3_S3_S3_(ptr noundef nonnull align 8 dereferenceable(16) %ref.tmp9, ptr noundef nonnull align 8 dereferenceable(8) %accrualStartDate_, ptr noundef nonnull align 8 dereferenceable(8) %__b.__a.i9, ptr noundef nonnull align 8 dereferenceable(8) %refPeriodStart_, ptr noundef nonnull align 8 dereferenceable(8) %refPeriodEnd_)
          to label %invoke.cont19 unwind label %lpad14

invoke.cont19:                                    ; preds = %if.else8
  %pn.i.i10 = getelementptr inbounds nuw i8, ptr %ref.tmp9, i64 8
  %17 = load ptr, ptr %pn.i.i10, align 8, !tbaa !27
  %cmp.not.i.i.i11 = icmp eq ptr %17, null
  br i1 %cmp.not.i.i.i11, label %_ZN8QuantLib10DayCounterD2Ev.exit25, label %if.then.i.i.i12

if.then.i.i.i12:                                  ; preds = %invoke.cont19
  %use_count_.i.i.i.i13 = getelementptr inbounds nuw i8, ptr %17, i64 8
  %18 = atomicrmw sub ptr %use_count_.i.i.i.i13, i32 1 acq_rel, align 4
  %cmp.i.i.i.i14 = icmp eq i32 %18, 1
  br i1 %cmp.i.i.i.i14, label %if.then.i.i.i.i15, label %_ZN8QuantLib10DayCounterD2Ev.exit25

if.then.i.i.i.i15:                                ; preds = %if.then.i.i.i12
  %vtable.i.i.i.i16 = load ptr, ptr %17, align 8, !tbaa !3
  %vfn.i.i.i.i17 = getelementptr inbounds i8, ptr %vtable.i.i.i.i16, i64 16
  %19 = load ptr, ptr %vfn.i.i.i.i17, align 8
  invoke void %19(ptr noundef nonnull align 8 dereferenceable(16) %17)
          to label %.noexc.i.i.i19 unwind label %terminate.lpad.i.i.i18

.noexc.i.i.i19:                                   ; preds = %if.then.i.i.i.i15
  %weak_count_.i.i.i.i.i20 = getelementptr inbounds nuw i8, ptr %17, i64 12
  %20 = atomicrmw sub ptr %weak_count_.i.i.i.i.i20, i32 1 acq_rel, align 4
  %cmp.i.i.i.i.i21 = icmp eq i32 %20, 1
  br i1 %cmp.i.i.i.i.i21, label %if.then.i.i.i.i.i22, label %_ZN8QuantLib10DayCounterD2Ev.exit25

if.then.i.i.i.i.i22:                              ; preds = %.noexc.i.i.i19
  %vtable.i.i.i.i.i23 = load ptr, ptr %17, align 8, !tbaa !3
  %vfn.i.i.i.i.i24 = getelementptr inbounds i8, ptr %vtable.i.i.i.i.i23, i64 24
  %21 = load ptr, ptr %vfn.i.i.i.i.i24, align 8
  invoke void %21(ptr noundef nonnull align 8 dereferenceable(16) %17)
          to label %_ZN8QuantLib10DayCounterD2Ev.exit25 unwind label %terminate.lpad.i.i.i18

terminate.lpad.i.i.i18:                           ; preds = %if.then.i.i.i.i.i22, %if.then.i.i.i.i15
  %22 = landingpad { ptr, i32 }
          catch ptr null
  %23 = extractvalue { ptr, i32 } %22, 0
  call void @__clang_call_terminate(ptr %23) #17
  unreachable

_ZN8QuantLib10DayCounterD2Ev.exit25:              ; preds = %invoke.cont19, %if.then.i.i.i12, %.noexc.i.i.i19, %if.then.i.i.i.i.i22
  call void @llvm.lifetime.end.p0(i64 16, ptr nonnull %ref.tmp9) #16
  br label %return

lpad14:                                           ; preds = %if.else8
  %24 = landingpad { ptr, i32 }
          cleanup
  call void @_ZN8QuantLib10DayCounterD2Ev(ptr noundef nonnull align 8 dereferenceable(16) %ref.tmp9) #16
  call void @llvm.lifetime.end.p0(i64 16, ptr nonnull %ref.tmp9) #16
  br label %eh.resume

return:                                           ; preds = %entry, %_ZN8QuantLib10DayCounterD2Ev.exit25, %_ZN8QuantLib10DayCounterD2Ev.exit
  %retval.0 = phi double [ %fneg, %_ZN8QuantLib10DayCounterD2Ev.exit ], [ %call20, %_ZN8QuantLib10DayCounterD2Ev.exit25 ], [ 0.000000e+00, %entry ]
  ret double %retval.0

eh.resume:                                        ; preds = %lpad14, %lpad
  %.pn = phi { ptr, i32 } [ %13, %lpad ], [ %24, %lpad14 ]
  resume { ptr, i32 } %.pn
}